; ModuleID = 'source-C-CXX/15/1005.c'
source_filename = "source-C-CXX/15/1005.c"
target datalayout = "e-m:e-p270:32:32-p271:32:32-p272:64:64-i64:64-f80:128-n8:16:32:64-S128"
target triple = "x86_64-pc-linux-gnu"

%struct._IO_FILE = type { i32, i8*, i8*, i8*, i8*, i8*, i8*, i8*, i8*, i8*, i8*, i8*, %struct._IO_marker*, %struct._IO_FILE*, i32, i32, i64, i16, i8, [1 x i8], i8*, i64, %struct._IO_codecvt*, %struct._IO_wide_data*, %struct._IO_FILE*, i8*, i64, i32, [20 x i8] }
%struct._IO_marker = type opaque
%struct._IO_codecvt = type opaque
%struct._IO_wide_data = type opaque

@.str = private unnamed_addr constant [3 x i8] c"%d\00", align 1
@stdin = external local_unnamed_addr global %struct._IO_FILE*, align 8

; Function Attrs: nofree nounwind sspstrong uwtable
define dso_local i32 @main() local_unnamed_addr #0 {
  %1 = alloca i32, align 4
  %2 = bitcast i32* %1 to i8*
  call void @llvm.lifetime.start.p0i8(i64 4, i8* nonnull %2) #3
  %3 = call i32 (i8*, ...) @__isoc99_scanf(i8* getelementptr inbounds ([3 x i8], [3 x i8]* @.str, i64 0, i64 0), i32* nonnull %1)
  %4 = load i32, i32* %1, align 4, !tbaa !5
  %5 = sdiv i32 %4, 10
  %6 = add i32 %4, 9
  %7 = icmp ult i32 %6, 19
  br i1 %7, label %13, label %8

8:                                                ; preds = %0
  %9 = sdiv i32 %4, 100
  %10 = add nsw i32 %5, 9
  %11 = icmp ult i32 %10, 19
  br i1 %11, label %13, label %29

12:                                               ; preds = %33
  store i32 %34, i32* %1, align 4, !tbaa !5
  br label %16

13:                                               ; preds = %0, %8, %29, %33
  %14 = phi i32 [ %34, %33 ], [ %30, %29 ], [ %9, %8 ], [ %5, %0 ]
  %15 = phi i32 [ 4, %33 ], [ 3, %29 ], [ 2, %8 ], [ 1, %0 ]
  store i32 %14, i32* %1, align 4, !tbaa !5
  br label %21

16:                                               ; preds = %21, %12
  %17 = load %struct._IO_FILE*, %struct._IO_FILE** @stdin, align 8, !tbaa !9
  %18 = call i32 @getc(%struct._IO_FILE* %17) #3
  %19 = load %struct._IO_FILE*, %struct._IO_FILE** @stdin, align 8, !tbaa !9
  %20 = call i32 @getc(%struct._IO_FILE* %19) #3
  call void @llvm.lifetime.end.p0i8(i64 4, i8* nonnull %2) #3
  ret i32 0

21:                                               ; preds = %13, %21
  %22 = phi i32 [ %27, %21 ], [ 0, %13 ]
  %23 = phi i32 [ %26, %21 ], [ %4, %13 ]
  %24 = srem i32 %23, 10
  %25 = call i32 (i8*, ...) @printf(i8* nonnull dereferenceable(1) getelementptr inbounds ([3 x i8], [3 x i8]* @.str, i64 0, i64 0), i32 %24)
  %26 = sdiv i32 %23, 10
  %27 = add nuw nsw i32 %22, 1
  %28 = icmp eq i32 %27, %15
  br i1 %28, label %16, label %21, !llvm.loop !11

29:                                               ; preds = %8
  %30 = sdiv i32 %4, 1000
  %31 = add nsw i32 %9, 9
  %32 = icmp ult i32 %31, 19
  br i1 %32, label %13, label %33

33:                                               ; preds = %29
  %34 = sdiv i32 %4, 10000
  %35 = add nsw i32 %30, 9
  %36 = icmp ult i32 %35, 19
  br i1 %36, label %13, label %12
}

; Function Attrs: argmemonly mustprogress nofree nosync nounwind willreturn
declare void @llvm.lifetime.start.p0i8(i64 immarg, i8* nocapture) #1

; Function Attrs: nofree nounwind
declare noundef i32 @__isoc99_scanf(i8* nocapture noundef readonly, ...) local_unnamed_addr #2

; Function Attrs: argmemonly mustprogress nofree nosync nounwind willreturn
declare void @llvm.lifetime.end.p0i8(i64 immarg, i8* nocapture) #1

; Function Attrs: nofree nounwind
declare noundef i32 @printf(i8* nocapture noundef readonly, ...) local_unnamed_addr #2

; Function Attrs: nofree nounwind
declare noundef i32 @getc(%struct._IO_FILE* nocapture noundef) local_unnamed_addr #2


!llvm.module.flags = !{!0, !1, !2, !3}
!llvm.ident = !{!4}

!0 = !{i32 1, !"wchar_size", i32 4}
!1 = !{i32 7, !"PIC Level", i32 2}
!2 = !{i32 7, !"PIE Level", i32 2}
!3 = !{i32 7, !"uwtable", i32 1}
!4 = !{!"clang version 13.0.0"}
!5 = !{!6, !6, i64 0}
!6 = !{!"int", !7, i64 0}
!7 = !{!"omnipotent char", !8, i64 0}
!8 = !{!"Simple C/C++ TBAA"}
!9 = !{!10, !10, i64 0}
!10 = !{!"any pointer", !7, i64 0}
!11 = distinct !{!11, !12}
!12 = !{!"llvm.loop.mustprogress"}
